target datalayout = "e-m:e-p270:32:32-p271:32:32-p272:64:64-i64:64-i128:128-f80:128-n8:16:32:64-S128"
target triple = "x86_64-pc-linux-gnu"

; Function Attrs: mustprogress nounwind uwtable
define internal noundef i64 @"_ZN5folly6detail8function11DispatchBig4execIZNS_20IOThreadPoolExecutor3addENS_8FunctionIFvvEEENSt6chrono8durationIlSt5ratioILl1ELl1000EEEES7_E3$_0EEmNS1_2OpEPNS1_4DataESG_"(i32 noundef %0, ptr noundef %1, ptr noundef %2) #0 align 2 {
  %4 = alloca i32, align 4
  %5 = alloca ptr, align 8
  %6 = alloca ptr, align 8
  store i32 %0, ptr %4, align 4, !tbaa !419
  store ptr %1, ptr %5, align 8, !tbaa !417
  store ptr %2, ptr %6, align 8, !tbaa !417
  %7 = load i32, ptr %4, align 4, !tbaa !419
  switch i32 %7, label %19 [
    i32 0, label %8
    i32 1, label %13
    i32 2, label %19
  ]

8:                                                ; preds = %3
  %9 = load ptr, ptr %5, align 8, !tbaa !417
  %10 = load ptr, ptr %9, align 16, !tbaa !184
  %11 = load ptr, ptr %6, align 8, !tbaa !417
  store ptr %10, ptr %11, align 16, !tbaa !184
  %12 = load ptr, ptr %5, align 8, !tbaa !417
  store ptr null, ptr %12, align 16, !tbaa !184
  br label %19

13:                                               ; preds = %3
  %14 = load ptr, ptr %5, align 8, !tbaa !417
  %15 = load ptr, ptr %14, align 16, !tbaa !184
  %16 = icmp eq ptr %15, null
  br i1 %16, label %18, label %17

17:                                               ; preds = %13
  call void @"_ZZN5folly20IOThreadPoolExecutor3addENS_8FunctionIFvvEEENSt6chrono8durationIlSt5ratioILl1ELl1000EEEES3_EN3$_0D2Ev"(ptr noundef nonnull align 16 dereferenceable(144) %15) #25
  call void @_ZdlPvm(ptr noundef %15, i64 noundef 144) #35
  br label %18

18:                                               ; preds = %17, %13
  br label %19

19:                                               ; preds = %3, %3, %18, %8
  ret i64 144
}