; Function Attrs: mustprogress nounwind uwtable
define internal noundef i64 @"_ZN5folly6detail8function11DispatchBig4execIZNS_20IOThreadPoolExecutor3addENS_8FunctionIFvvEEENSt6chrono8durationIlSt5ratioILl1ELl1000EEEES7_E3$_0EEmNS1_2OpEPNS1_4DataESG_"(i32 noundef %0, ptr noundef captures(none) %1, ptr noundef writeonly captures(none) %2) #0 align 2 {
  switch i32 %0, label %10 [
    i32 0, label %4
    i32 1, label %6
  ]

4:                                                ; preds = %3
  %5 = load ptr, ptr %1, align 16, !tbaa !48
  store ptr %5, ptr %2, align 16, !tbaa !48
  store ptr null, ptr %1, align 16, !tbaa !48
  br label %10

6:                                                ; preds = %3
  %7 = load ptr, ptr %1, align 16, !tbaa !48
  %8 = icmp eq ptr %7, null
  br i1 %8, label %10, label %9

9:                                                ; preds = %6
  tail call fastcc void @"_ZZN5folly20IOThreadPoolExecutor3addENS_8FunctionIFvvEEENSt6chrono8durationIlSt5ratioILl1ELl1000EEEES3_EN3$_0D2Ev"(ptr noundef nonnull align 16 dereferenceable(144) %7) #25
  tail call void @_ZdlPvm(ptr noundef nonnull %7, i64 noundef 144) #38
  br label %10

10:                                               ; preds = %6, %9, %4, %3
  ret i64 144
}